; Function Attrs: mustprogress nofree norecurse nosync nounwind willreturn memory(read, inaccessiblemem: none) uwtable
define noundef i32 @_ZNK6icu_7515AlphabeticIndex20getBucketRecordCountEv(ptr nocapture noundef nonnull readonly align 8 dereferenceable(400) %this) unnamed_addr #2 align 2 {
entry:
  %currentBucket_ = getelementptr inbounds i8, ptr %this, i64 24
  %0 = load ptr, ptr %currentBucket_, align 8
  %cmp.not = icmp eq ptr %0, null
  br i1 %cmp.not, label %return, label %land.lhs.true

land.lhs.true:                                    ; preds = %entry
  %records_ = getelementptr inbounds i8, ptr %0, i64 160
  %1 = load ptr, ptr %records_, align 8
  %cmp3.not = icmp eq ptr %1, null
  br i1 %cmp3.not, label %return, label %if.then

if.then:                                          ; preds = %land.lhs.true
  %count.i = getelementptr inbounds i8, ptr %1, i64 8
  %2 = load i32, ptr %count.i, align 8
  br label %return

return:                                           ; preds = %entry, %land.lhs.true, %if.then
  %retval.0 = phi i32 [ %2, %if.then ], [ 0, %land.lhs.true ], [ 0, %entry ]
  ret i32 %retval.0
}